target datalayout = "e-m:e-p270:32:32-p271:32:32-p272:64:64-i64:64-i128:128-f80:128-n8:16:32:64-S128"
target triple = "x86_64-pc-linux-gnu"

%struct.lua_State = type { %struct.GCRef, i8, i8, i8, i8, %struct.MRef, %struct.GCRef, ptr, ptr, %struct.MRef, %struct.MRef, %struct.GCRef, %struct.GCRef, ptr, i32 }
%struct.MRef = type { i64 }
%struct.GCRef = type { i64 }
%union.TValue = type { i64 }
%struct.GCstr = type { %struct.GCRef, i8, i8, i8, i8, i32, i32, i32 }
%struct.GCcdata = type { %struct.GCRef, i8, i8, i16 }
%struct.CType = type { i32, i32, i16, i16, %struct.GCRef }
%struct.global_State = type { ptr, ptr, %struct.GCState, %struct.GCstr, i8, i8, i8, i8, %struct.StrInternState, i32, %struct.GCRef, %struct.SBuf, %union.TValue, %union.TValue, %struct.Node, %union.TValue, %struct.GCupval, i32, i32, ptr, ptr, ptr, i32, i32, %struct.GCRef, %struct.MRef, %struct.MRef, %struct.PRNGState, [39 x %struct.GCRef] }
%struct.GCState = type { i64, i64, i8, i8, i8, i8, i32, %struct.GCRef, %struct.MRef, %struct.GCRef, %struct.GCRef, %struct.GCRef, %struct.GCRef, i64, i64, i32, i32, %struct.MRef }
%struct.StrInternState = type { ptr, i32, i32, i32, i8, i8, i8, i8, i64 }
%struct.SBuf = type { ptr, ptr, ptr, %struct.MRef }
%struct.Node = type { %union.TValue, %union.TValue, %struct.MRef }
%struct.GCupval = type { %struct.GCRef, i8, i8, i8, i8, %union.anon, %struct.MRef, i32 }
%union.anon = type { %struct.anon.1 }
%struct.anon.1 = type { %struct.GCRef, %struct.GCRef }
%struct.PRNGState = type { [4 x i64] }
%struct.CTState = type { ptr, i32, i32, ptr, ptr, ptr, %struct.CCallback, [128 x i16] }
%struct.CCallback = type { [8 x %union.FPRCBArg], [8 x i64], ptr, ptr, ptr, i32, i32, i32 }
%union.FPRCBArg = type { double }

@.str.3 = private unnamed_addr constant [23 x i8] c"copy of dead GC object\00", align 1
@lj_char_bits = external hidden constant [257 x i8], align 16

; Function Attrs: alwaysinline nounwind uwtable
define internal i32 @ctype_check(ptr noundef %0, i32 noundef %1) #1 {
  %3 = alloca ptr, align 8
  %4 = alloca i32, align 4
  store ptr %0, ptr %3, align 8, !tbaa !40
  store i32 %1, ptr %4, align 4, !tbaa !29
  %5 = load i32, ptr %4, align 4, !tbaa !29
  ret i32 %5
}

; Function Attrs: alwaysinline nounwind uwtable
define internal void @checklivetv(ptr noundef %0, ptr noundef %1, ptr noundef %2) #1 {
  %4 = alloca ptr, align 8
  %5 = alloca ptr, align 8
  %6 = alloca ptr, align 8
  store ptr %0, ptr %4, align 8, !tbaa !4
  store ptr %1, ptr %5, align 8, !tbaa !17
  store ptr %2, ptr %6, align 8, !tbaa !25
  ret void
}

; Function Attrs: alwaysinline nounwind uwtable
define internal ptr @ctype_get(ptr noundef %0, i32 noundef %1) #1 {
  %3 = alloca ptr, align 8
  %4 = alloca i32, align 4
  store ptr %0, ptr %3, align 8, !tbaa !40
  store i32 %1, ptr %4, align 4, !tbaa !29
  %5 = load ptr, ptr %3, align 8, !tbaa !40
  %6 = getelementptr inbounds nuw %struct.CTState, ptr %5, i32 0, i32 0
  %7 = load ptr, ptr %6, align 8, !tbaa !83
  %8 = load ptr, ptr %3, align 8, !tbaa !40
  %9 = load i32, ptr %4, align 4, !tbaa !29
  %10 = call i32 @ctype_check(ptr noundef %8, i32 noundef %9)
  %11 = zext i32 %10 to i64
  %12 = getelementptr inbounds nuw %struct.CType, ptr %7, i64 %11
  ret ptr %12
}

; Function Attrs: alwaysinline nounwind uwtable
define internal ptr @ctype_child(ptr noundef %0, ptr noundef %1) #1 {
  %3 = alloca ptr, align 8
  %4 = alloca ptr, align 8
  store ptr %0, ptr %3, align 8, !tbaa !40
  store ptr %1, ptr %4, align 8, !tbaa !42
  %5 = load ptr, ptr %3, align 8, !tbaa !40
  %6 = load ptr, ptr %4, align 8, !tbaa !42
  %7 = getelementptr inbounds nuw %struct.CType, ptr %6, i32 0, i32 0
  %8 = load i32, ptr %7, align 8, !tbaa !44
  %9 = and i32 %8, 65535
  %10 = call ptr @ctype_get(ptr noundef %5, i32 noundef %9)
  ret ptr %10
}

; Function Attrs: alwaysinline nounwind uwtable
define internal ptr @ctype_cts(ptr noundef %0) #1 {
  %2 = alloca ptr, align 8
  %3 = alloca ptr, align 8
  store ptr %0, ptr %2, align 8, !tbaa !4
  call void @llvm.lifetime.start.p0(i64 8, ptr %3) #11
  %4 = load ptr, ptr %2, align 8, !tbaa !4
  %5 = getelementptr inbounds nuw %struct.lua_State, ptr %4, i32 0, i32 5
  %6 = getelementptr inbounds nuw %struct.MRef, ptr %5, i32 0, i32 0
  %7 = load i64, ptr %6, align 8, !tbaa !33
  %8 = inttoptr i64 %7 to ptr
  %9 = getelementptr inbounds nuw %struct.global_State, ptr %8, i32 0, i32 26
  %10 = getelementptr inbounds nuw %struct.MRef, ptr %9, i32 0, i32 0
  %11 = load i64, ptr %10, align 8, !tbaa !77
  %12 = inttoptr i64 %11 to ptr
  store ptr %12, ptr %3, align 8, !tbaa !40
  %13 = load ptr, ptr %2, align 8, !tbaa !4
  %14 = load ptr, ptr %3, align 8, !tbaa !40
  %15 = getelementptr inbounds nuw %struct.CTState, ptr %14, i32 0, i32 3
  store ptr %13, ptr %15, align 8, !tbaa !78
  %16 = load ptr, ptr %3, align 8, !tbaa !40
  call void @llvm.lifetime.end.p0(i64 8, ptr %3) #11
  ret ptr %16
}

; Function Attrs: alwaysinline nounwind uwtable
define internal void @copyTV(ptr noundef %0, ptr noundef %1, ptr noundef %2) #1 {
  %4 = alloca ptr, align 8
  %5 = alloca ptr, align 8
  %6 = alloca ptr, align 8
  store ptr %0, ptr %4, align 8, !tbaa !4
  store ptr %1, ptr %5, align 8, !tbaa !17
  store ptr %2, ptr %6, align 8, !tbaa !17
  %7 = load ptr, ptr %5, align 8, !tbaa !17
  %8 = load ptr, ptr %6, align 8, !tbaa !17
  call void @llvm.memcpy.p0.p0.i64(ptr align 8 %7, ptr align 8 %8, i64 8, i1 false), !tbaa.struct !18
  %9 = load ptr, ptr %4, align 8, !tbaa !4
  %10 = load ptr, ptr %5, align 8, !tbaa !17
  call void @checklivetv(ptr noundef %9, ptr noundef %10, ptr noundef @.str.3)
  ret void
}

; Function Attrs: alwaysinline nounwind uwtable
define internal i32 @lj_strscan_numberobj(ptr noundef %0) #1 {
  %2 = alloca ptr, align 8
  store ptr %0, ptr %2, align 8, !tbaa !17
  %3 = load ptr, ptr %2, align 8, !tbaa !17
  %4 = load i64, ptr %3, align 8, !tbaa !16
  %5 = ashr i64 %4, 47
  %6 = trunc i64 %5 to i32
  %7 = icmp ule i32 %6, -14
  br i1 %7, label %25, label %8

8:                                                ; preds = %1
  %9 = load ptr, ptr %2, align 8, !tbaa !17
  %10 = load i64, ptr %9, align 8, !tbaa !16
  %11 = ashr i64 %10, 47
  %12 = trunc i64 %11 to i32
  %13 = icmp eq i32 %12, -5
  br i1 %13, label %14, label %23

14:                                               ; preds = %8
  %15 = load ptr, ptr %2, align 8, !tbaa !17
  %16 = getelementptr inbounds nuw %struct.GCRef, ptr %15, i32 0, i32 0
  %17 = load i64, ptr %16, align 8, !tbaa !16
  %18 = and i64 %17, 140737488355327
  %19 = inttoptr i64 %18 to ptr
  %20 = load ptr, ptr %2, align 8, !tbaa !17
  %21 = call i32 @lj_strscan_num(ptr noundef %19, ptr noundef %20)
  %22 = icmp ne i32 %21, 0
  br label %23

23:                                               ; preds = %14, %8
  %24 = phi i1 [ false, %8 ], [ %22, %14 ]
  br label %25

25:                                               ; preds = %23, %1
  %26 = phi i1 [ true, %1 ], [ %24, %23 ]
  %27 = zext i1 %26 to i32
  ret i32 %27
}

; Function Attrs: nounwind uwtable
define internal i32 @lj_ffh_tonumber(ptr noundef %0) #3 {
  %2 = alloca i32, align 4
  %3 = alloca ptr, align 8
  %4 = alloca i32, align 4
  %5 = alloca ptr, align 8
  %6 = alloca i32, align 4
  %7 = alloca ptr, align 8
  %8 = alloca ptr, align 8
  %9 = alloca ptr, align 8
  %10 = alloca ptr, align 8
  %11 = alloca i32, align 4
  %12 = alloca i64, align 8
  %13 = alloca double, align 8
  store ptr %0, ptr %3, align 8, !tbaa !4
  call void @llvm.lifetime.start.p0(i64 4, ptr %4) #11
  %14 = load ptr, ptr %3, align 8, !tbaa !4
  %15 = call i32 @lj_lib_optint(ptr noundef %14, i32 noundef 2, i32 noundef 10)
  store i32 %15, ptr %4, align 4, !tbaa !29
  %16 = load i32, ptr %4, align 4, !tbaa !29
  %17 = icmp eq i32 %16, 10
  br i1 %17, label %18, label %90

18:                                               ; preds = %1
  call void @llvm.lifetime.start.p0(i64 8, ptr %5) #11
  %19 = load ptr, ptr %3, align 8, !tbaa !4
  %20 = call ptr @lj_lib_checkany(ptr noundef %19, i32 noundef 1)
  store ptr %20, ptr %5, align 8, !tbaa !17
  %21 = load ptr, ptr %5, align 8, !tbaa !17
  %22 = call i32 @lj_strscan_numberobj(ptr noundef %21)
  %23 = icmp ne i32 %22, 0
  br i1 %23, label %24, label %32

24:                                               ; preds = %18
  %25 = load ptr, ptr %3, align 8, !tbaa !4
  %26 = load ptr, ptr %3, align 8, !tbaa !4
  %27 = getelementptr inbounds nuw %struct.lua_State, ptr %26, i32 0, i32 7
  %28 = load ptr, ptr %27, align 8, !tbaa !32
  %29 = getelementptr inbounds %union.TValue, ptr %28, i64 -1
  %30 = getelementptr inbounds %union.TValue, ptr %29, i64 -1
  %31 = load ptr, ptr %5, align 8, !tbaa !17
  call void @copyTV(ptr noundef %25, ptr noundef %30, ptr noundef %31)
  store i32 2, ptr %2, align 4
  store i32 1, ptr %6, align 4
  br label %87

32:                                               ; preds = %18
  %33 = load ptr, ptr %5, align 8, !tbaa !17
  %34 = load i64, ptr %33, align 8, !tbaa !16
  %35 = ashr i64 %34, 47
  %36 = trunc i64 %35 to i32
  %37 = icmp eq i32 %36, -11
  br i1 %37, label %38, label %86

38:                                               ; preds = %32
  call void @llvm.lifetime.start.p0(i64 8, ptr %7) #11
  %39 = load ptr, ptr %3, align 8, !tbaa !4
  %40 = call ptr @ctype_cts(ptr noundef %39)
  store ptr %40, ptr %7, align 8, !tbaa !40
  call void @llvm.lifetime.start.p0(i64 8, ptr %8) #11
  %41 = load ptr, ptr %7, align 8, !tbaa !40
  %42 = load ptr, ptr %5, align 8, !tbaa !17
  %43 = getelementptr inbounds nuw %struct.GCRef, ptr %42, i32 0, i32 0
  %44 = load i64, ptr %43, align 8, !tbaa !16
  %45 = and i64 %44, 140737488355327
  %46 = inttoptr i64 %45 to ptr
  %47 = getelementptr inbounds nuw %struct.GCcdata, ptr %46, i32 0, i32 3
  %48 = load i16, ptr %47, align 2, !tbaa !16
  %49 = zext i16 %48 to i32
  %50 = call ptr @lj_ctype_rawref(ptr noundef %41, i32 noundef %49)
  store ptr %50, ptr %8, align 8, !tbaa !42
  %51 = load ptr, ptr %8, align 8, !tbaa !42
  %52 = getelementptr inbounds nuw %struct.CType, ptr %51, i32 0, i32 0
  %53 = load i32, ptr %52, align 8, !tbaa !44
  %54 = lshr i32 %53, 28
  %55 = icmp eq i32 %54, 5
  br i1 %55, label %56, label %60

56:                                               ; preds = %38
  %57 = load ptr, ptr %7, align 8, !tbaa !40
  %58 = load ptr, ptr %8, align 8, !tbaa !42
  %59 = call ptr @ctype_child(ptr noundef %57, ptr noundef %58)
  store ptr %59, ptr %8, align 8, !tbaa !42
  br label %60

60:                                               ; preds = %56, %38
  %61 = load ptr, ptr %8, align 8, !tbaa !42
  %62 = getelementptr inbounds nuw %struct.CType, ptr %61, i32 0, i32 0
  %63 = load i32, ptr %62, align 8, !tbaa !44
  %64 = lshr i32 %63, 28
  %65 = icmp eq i32 %64, 0
  br i1 %65, label %72, label %66

66:                                               ; preds = %60
  %67 = load ptr, ptr %8, align 8, !tbaa !42
  %68 = getelementptr inbounds nuw %struct.CType, ptr %67, i32 0, i32 0
  %69 = load i32, ptr %68, align 8, !tbaa !44
  %70 = and i32 %69, -201326592
  %71 = icmp eq i32 %70, 872415232
  br i1 %71, label %72, label %82

72:                                               ; preds = %66, %60
  %73 = load ptr, ptr %7, align 8, !tbaa !40
  %74 = load ptr, ptr %7, align 8, !tbaa !40
  %75 = call ptr @ctype_get(ptr noundef %74, i32 noundef 14)
  %76 = load ptr, ptr %3, align 8, !tbaa !4
  %77 = getelementptr inbounds nuw %struct.lua_State, ptr %76, i32 0, i32 7
  %78 = load ptr, ptr %77, align 8, !tbaa !32
  %79 = getelementptr inbounds %union.TValue, ptr %78, i64 -1
  %80 = getelementptr inbounds %union.TValue, ptr %79, i64 -1
  %81 = load ptr, ptr %5, align 8, !tbaa !17
  call void @lj_cconv_ct_tv(ptr noundef %73, ptr noundef %75, ptr noundef %80, ptr noundef %81, i32 noundef 0)
  store i32 2, ptr %2, align 4
  store i32 1, ptr %6, align 4
  br label %83

82:                                               ; preds = %66
  store i32 0, ptr %6, align 4
  br label %83

83:                                               ; preds = %82, %72
  call void @llvm.lifetime.end.p0(i64 8, ptr %8) #11
  call void @llvm.lifetime.end.p0(i64 8, ptr %7) #11
  %84 = load i32, ptr %6, align 4
  switch i32 %84, label %87 [
    i32 0, label %85
  ]

85:                                               ; preds = %83
  br label %86

86:                                               ; preds = %85, %32
  store i32 0, ptr %6, align 4
  br label %87

87:                                               ; preds = %86, %83, %24
  call void @llvm.lifetime.end.p0(i64 8, ptr %5) #11
  %88 = load i32, ptr %6, align 4
  switch i32 %88, label %192 [
    i32 0, label %89
  ]

89:                                               ; preds = %87
  br label %186

90:                                               ; preds = %1
  call void @llvm.lifetime.start.p0(i64 8, ptr %9) #11
  %91 = load ptr, ptr %3, align 8, !tbaa !4
  %92 = call ptr @lj_lib_checkstr(ptr noundef %91, i32 noundef 1)
  %93 = getelementptr inbounds %struct.GCstr, ptr %92, i64 1
  store ptr %93, ptr %9, align 8, !tbaa !25
  call void @llvm.lifetime.start.p0(i64 8, ptr %10) #11
  call void @llvm.lifetime.start.p0(i64 4, ptr %11) #11
  store i32 0, ptr %11, align 4, !tbaa !29
  call void @llvm.lifetime.start.p0(i64 8, ptr %12) #11
  %94 = load i32, ptr %4, align 4, !tbaa !29
  %95 = icmp slt i32 %94, 2
  br i1 %95, label %99, label %96

96:                                               ; preds = %90
  %97 = load i32, ptr %4, align 4, !tbaa !29
  %98 = icmp sgt i32 %97, 36
  br i1 %98, label %99, label %101

99:                                               ; preds = %96, %90
  %100 = load ptr, ptr %3, align 8, !tbaa !4
  call void @lj_err_arg(ptr noundef %100, i32 noundef 2, i32 noundef 1133) #10
  unreachable

101:                                              ; preds = %96
  br label %102

102:                                              ; preds = %111, %101
  %103 = load ptr, ptr %9, align 8, !tbaa !25
  %104 = load i8, ptr %103, align 1, !tbaa !16
  %105 = zext i8 %104 to i64
  %106 = getelementptr inbounds nuw i8, ptr getelementptr inbounds (i8, ptr @lj_char_bits, i64 1), i64 %105
  %107 = load i8, ptr %106, align 1, !tbaa !16
  %108 = zext i8 %107 to i32
  %109 = and i32 %108, 2
  %110 = icmp ne i32 %109, 0
  br i1 %110, label %111, label %114

111:                                              ; preds = %102
  %112 = load ptr, ptr %9, align 8, !tbaa !25
  %113 = getelementptr inbounds nuw i8, ptr %112, i32 1
  store ptr %113, ptr %9, align 8, !tbaa !25
  br label %102, !llvm.loop !47

114:                                              ; preds = %102
  %115 = load ptr, ptr %9, align 8, !tbaa !25
  %116 = load i8, ptr %115, align 1, !tbaa !16
  %117 = sext i8 %116 to i32
  %118 = icmp eq i32 %117, 45
  br i1 %118, label %119, label %122

119:                                              ; preds = %114
  %120 = load ptr, ptr %9, align 8, !tbaa !25
  %121 = getelementptr inbounds nuw i8, ptr %120, i32 1
  store ptr %121, ptr %9, align 8, !tbaa !25
  store i32 1, ptr %11, align 4, !tbaa !29
  br label %131

122:                                              ; preds = %114
  %123 = load ptr, ptr %9, align 8, !tbaa !25
  %124 = load i8, ptr %123, align 1, !tbaa !16
  %125 = sext i8 %124 to i32
  %126 = icmp eq i32 %125, 43
  br i1 %126, label %127, label %130

127:                                              ; preds = %122
  %128 = load ptr, ptr %9, align 8, !tbaa !25
  %129 = getelementptr inbounds nuw i8, ptr %128, i32 1
  store ptr %129, ptr %9, align 8, !tbaa !25
  br label %130

130:                                              ; preds = %127, %122
  br label %131

131:                                              ; preds = %130, %119
  %132 = load ptr, ptr %9, align 8, !tbaa !25
  %133 = load i8, ptr %132, align 1, !tbaa !16
  %134 = zext i8 %133 to i64
  %135 = getelementptr inbounds nuw i8, ptr getelementptr inbounds (i8, ptr @lj_char_bits, i64 1), i64 %134
  %136 = load i8, ptr %135, align 1, !tbaa !16
  %137 = zext i8 %136 to i32
  %138 = and i32 %137, 104
  %139 = icmp ne i32 %138, 0
  br i1 %139, label %140, label %182

140:                                              ; preds = %131
  %141 = load ptr, ptr %9, align 8, !tbaa !25
  %142 = load i32, ptr %4, align 4, !tbaa !29
  %143 = call i64 @strtoul(ptr noundef %141, ptr noundef %10, i32 noundef %142) #11
  store i64 %143, ptr %12, align 8, !tbaa !48
  %144 = load ptr, ptr %9, align 8, !tbaa !25
  %145 = load ptr, ptr %10, align 8, !tbaa !25
  %146 = icmp ne ptr %144, %145
  br i1 %146, label %147, label %181

147:                                              ; preds = %140
  br label %148

148:                                              ; preds = %157, %147
  %149 = load ptr, ptr %10, align 8, !tbaa !25
  %150 = load i8, ptr %149, align 1, !tbaa !16
  %151 = zext i8 %150 to i64
  %152 = getelementptr inbounds nuw i8, ptr getelementptr inbounds (i8, ptr @lj_char_bits, i64 1), i64 %151
  %153 = load i8, ptr %152, align 1, !tbaa !16
  %154 = zext i8 %153 to i32
  %155 = and i32 %154, 2
  %156 = icmp ne i32 %155, 0
  br i1 %156, label %157, label %160

157:                                              ; preds = %148
  %158 = load ptr, ptr %10, align 8, !tbaa !25
  %159 = getelementptr inbounds nuw i8, ptr %158, i32 1
  store ptr %159, ptr %10, align 8, !tbaa !25
  br label %148, !llvm.loop !49

160:                                              ; preds = %148
  %161 = load ptr, ptr %10, align 8, !tbaa !25
  %162 = load i8, ptr %161, align 1, !tbaa !16
  %163 = sext i8 %162 to i32
  %164 = icmp eq i32 %163, 0
  br i1 %164, label %165, label %180

165:                                              ; preds = %160
  call void @llvm.lifetime.start.p0(i64 8, ptr %13) #11
  %166 = load i64, ptr %12, align 8, !tbaa !48
  %167 = uitofp i64 %166 to double
  store double %167, ptr %13, align 8, !tbaa !50
  %168 = load i32, ptr %11, align 4, !tbaa !29
  %169 = icmp ne i32 %168, 0
  br i1 %169, label %170, label %173

170:                                              ; preds = %165
  %171 = load double, ptr %13, align 8, !tbaa !50
  %172 = fneg double %171
  store double %172, ptr %13, align 8, !tbaa !50
  br label %173

173:                                              ; preds = %170, %165
  %174 = load double, ptr %13, align 8, !tbaa !50
  %175 = load ptr, ptr %3, align 8, !tbaa !4
  %176 = getelementptr inbounds nuw %struct.lua_State, ptr %175, i32 0, i32 7
  %177 = load ptr, ptr %176, align 8, !tbaa !32
  %178 = getelementptr inbounds %union.TValue, ptr %177, i64 -1
  %179 = getelementptr inbounds %union.TValue, ptr %178, i64 -1
  store double %174, ptr %179, align 8, !tbaa !16
  call void @llvm.lifetime.end.p0(i64 8, ptr %13) #11
  store i32 2, ptr %2, align 4
  store i32 1, ptr %6, align 4
  br label %183

180:                                              ; preds = %160
  br label %181

181:                                              ; preds = %180, %140
  br label %182

182:                                              ; preds = %181, %131
  store i32 0, ptr %6, align 4
  br label %183

183:                                              ; preds = %182, %173
  call void @llvm.lifetime.end.p0(i64 8, ptr %12) #11
  call void @llvm.lifetime.end.p0(i64 4, ptr %11) #11
  call void @llvm.lifetime.end.p0(i64 8, ptr %10) #11
  call void @llvm.lifetime.end.p0(i64 8, ptr %9) #11
  %184 = load i32, ptr %6, align 4
  switch i32 %184, label %192 [
    i32 0, label %185
  ]

185:                                              ; preds = %183
  br label %186

186:                                              ; preds = %185, %89
  %187 = load ptr, ptr %3, align 8, !tbaa !4
  %188 = getelementptr inbounds nuw %struct.lua_State, ptr %187, i32 0, i32 7
  %189 = load ptr, ptr %188, align 8, !tbaa !32
  %190 = getelementptr inbounds %union.TValue, ptr %189, i64 -1
  %191 = getelementptr inbounds %union.TValue, ptr %190, i64 -1
  store i64 -1, ptr %191, align 8, !tbaa !16
  store i32 2, ptr %2, align 4
  store i32 1, ptr %6, align 4
  br label %192

192:                                              ; preds = %186, %183, %87
  call void @llvm.lifetime.end.p0(i64 4, ptr %4) #11
  %193 = load i32, ptr %2, align 4
  ret i32 %193
}