; Function Attrs: nounwind uwtable
define internal noundef i32 @lj_ffh_tonumber(ptr noundef %0) #2 {
  %2 = alloca ptr, align 8
  %3 = tail call i32 @lj_lib_optint(ptr noundef %0, i32 noundef 2, i32 noundef 10) #11
  %4 = icmp eq i32 %3, 10
  br i1 %4, label %5, label %53

5:                                                ; preds = %1
  %6 = tail call ptr @lj_lib_checkany(ptr noundef %0, i32 noundef 1) #11
  %7 = load i64, ptr %6, align 8, !tbaa !14
  %8 = ashr i64 %7, 47
  %9 = icmp ult i64 %8, -13
  br i1 %9, label %lj_strscan_numberobj.exit.thread70, label %10

10:                                               ; preds = %5
  %11 = icmp eq i64 %8, -5
  br i1 %11, label %lj_strscan_numberobj.exit, label %lj_strscan_numberobj.exit.thread

lj_strscan_numberobj.exit:                        ; preds = %10
  %12 = and i64 %7, 140737488355327
  %13 = inttoptr i64 %12 to ptr
  %14 = tail call i32 @lj_strscan_num(ptr noundef %13, ptr noundef nonnull %6) #11
  %.not72 = icmp eq i32 %14, 0
  %.pre79 = load i64, ptr %6, align 8, !tbaa !14
  br i1 %.not72, label %lj_strscan_numberobj.exit.thread, label %lj_strscan_numberobj.exit.thread70

lj_strscan_numberobj.exit.thread70:               ; preds = %5, %lj_strscan_numberobj.exit
  %15 = phi i64 [ %7, %5 ], [ %.pre79, %lj_strscan_numberobj.exit ]
  %16 = getelementptr inbounds nuw i8, ptr %0, i64 32
  %17 = load ptr, ptr %16, align 8, !tbaa !19
  %18 = getelementptr inbounds i8, ptr %17, i64 -16
  store i64 %15, ptr %18, align 8, !tbaa !14
  br label %.critedge66

lj_strscan_numberobj.exit.thread:                 ; preds = %lj_strscan_numberobj.exit, %10
  %19 = phi i64 [ %7, %10 ], [ %.pre79, %lj_strscan_numberobj.exit ]
  %.mask = and i64 %19, -140737488355328
  %20 = icmp eq i64 %.mask, -1548112371908608
  br i1 %20, label %21, label %90

21:                                               ; preds = %lj_strscan_numberobj.exit.thread
  %22 = getelementptr inbounds nuw i8, ptr %0, i64 16
  %23 = load i64, ptr %22, align 8, !tbaa !20
  %24 = inttoptr i64 %23 to ptr
  %25 = getelementptr inbounds nuw i8, ptr %24, i64 384
  %26 = load i64, ptr %25, align 8, !tbaa !38
  %27 = inttoptr i64 %26 to ptr
  %28 = getelementptr inbounds nuw i8, ptr %27, i64 16
  store ptr %0, ptr %28, align 8, !tbaa !39
  %29 = load i64, ptr %6, align 8, !tbaa !14
  %30 = and i64 %29, 140737488355327
  %31 = inttoptr i64 %30 to ptr
  %32 = getelementptr inbounds nuw i8, ptr %31, i64 10
  %33 = load i16, ptr %32, align 2, !tbaa !14
  %34 = zext i16 %33 to i32
  %35 = tail call ptr @lj_ctype_rawref(ptr noundef %27, i32 noundef %34) #11
  %36 = load i32, ptr %35, align 8, !tbaa !48
  %.mask62 = and i32 %36, -268435456
  %37 = icmp eq i32 %.mask62, 1342177280
  br i1 %37, label %38, label %43

38:                                               ; preds = %21
  %39 = and i32 %36, 65535
  %40 = load ptr, ptr %27, align 8, !tbaa !51
  %41 = zext nneg i32 %39 to i64
  %42 = getelementptr inbounds nuw %struct.CType, ptr %40, i64 %41
  %.pre78 = load i32, ptr %42, align 8, !tbaa !48
  br label %43

43:                                               ; preds = %38, %21
  %44 = phi i32 [ %.pre78, %38 ], [ %36, %21 ]
  %45 = icmp ult i32 %44, 268435456
  %46 = and i32 %44, -201326592
  %47 = icmp eq i32 %46, 872415232
  %or.cond64 = or i1 %45, %47
  br i1 %or.cond64, label %.critedge, label %90

.critedge:                                        ; preds = %43
  %48 = load ptr, ptr %27, align 8, !tbaa !51
  %49 = getelementptr inbounds nuw i8, ptr %48, i64 336
  %50 = getelementptr inbounds nuw i8, ptr %0, i64 32
  %51 = load ptr, ptr %50, align 8, !tbaa !19
  %52 = getelementptr inbounds i8, ptr %51, i64 -16
  tail call void @lj_cconv_ct_tv(ptr noundef nonnull %27, ptr noundef nonnull %49, ptr noundef nonnull %52, ptr noundef nonnull %6, i32 noundef 0) #11
  br label %.critedge66

53:                                               ; preds = %1
  %54 = tail call ptr @lj_lib_checkstr(ptr noundef %0, i32 noundef 1) #11
  call void @llvm.lifetime.start.p0(i64 8, ptr nonnull %2) #11
  %55 = add i32 %3, -37
  %or.cond = icmp ult i32 %55, -35
  br i1 %or.cond, label %57, label %.preheader73.preheader

.preheader73.preheader:                           ; preds = %53
  %56 = getelementptr inbounds nuw i8, ptr %54, i64 24
  br label %.preheader73

57:                                               ; preds = %53
  tail call void @lj_err_arg(ptr noundef %0, i32 noundef 2, i32 noundef 1133) #10
  unreachable

.preheader73:                                     ; preds = %.preheader73.preheader, %.preheader73
  %.048 = phi ptr [ %63, %.preheader73 ], [ %56, %.preheader73.preheader ]
  %58 = load i8, ptr %.048, align 1, !tbaa !14
  %59 = zext i8 %58 to i64
  %60 = getelementptr inbounds nuw i8, ptr getelementptr inbounds nuw (i8, ptr @lj_char_bits, i64 1), i64 %59
  %61 = load i8, ptr %60, align 1, !tbaa !14
  %62 = and i8 %61, 2
  %.not = icmp eq i8 %62, 0
  %63 = getelementptr inbounds nuw i8, ptr %.048, i64 1
  br i1 %.not, label %64, label %.preheader73, !llvm.loop !52

64:                                               ; preds = %.preheader73
  %.not60 = icmp eq i8 %58, 45
  %65 = icmp eq i8 %58, 43
  %66 = or i1 %.not60, %65
  %.149.idx = zext i1 %66 to i64
  %.149 = getelementptr inbounds nuw i8, ptr %.048, i64 %.149.idx
  %67 = load i8, ptr %.149, align 1, !tbaa !14
  %68 = zext i8 %67 to i64
  %69 = getelementptr inbounds nuw i8, ptr getelementptr inbounds nuw (i8, ptr @lj_char_bits, i64 1), i64 %68
  %70 = load i8, ptr %69, align 1, !tbaa !14
  %71 = and i8 %70, 104
  %.not56 = icmp eq i8 %71, 0
  br i1 %.not56, label %89, label %72

72:                                               ; preds = %64
  %73 = call i64 @strtoul(ptr noundef nonnull %.149, ptr noundef nonnull %2, i32 noundef %3) #11
  %74 = load ptr, ptr %2, align 8, !tbaa !53
  %.not57 = icmp eq ptr %.149, %74
  br i1 %.not57, label %89, label %.preheader

.preheader:                                       ; preds = %72, %.preheader
  %75 = phi ptr [ %81, %.preheader ], [ %74, %72 ]
  %76 = load i8, ptr %75, align 1, !tbaa !14
  %77 = zext i8 %76 to i64
  %78 = getelementptr inbounds nuw i8, ptr getelementptr inbounds nuw (i8, ptr @lj_char_bits, i64 1), i64 %77
  %79 = load i8, ptr %78, align 1, !tbaa !14
  %80 = and i8 %79, 2
  %.not58 = icmp eq i8 %80, 0
  %81 = getelementptr inbounds nuw i8, ptr %75, i64 1
  br i1 %.not58, label %82, label %.preheader, !llvm.loop !54

82:                                               ; preds = %.preheader
  %83 = icmp eq i8 %76, 0
  br i1 %83, label %.critedge68, label %89

.critedge68:                                      ; preds = %82
  %84 = uitofp i64 %73 to double
  %85 = fneg double %84
  %.0 = select i1 %.not60, double %85, double %84
  %86 = getelementptr inbounds nuw i8, ptr %0, i64 32
  %87 = load ptr, ptr %86, align 8, !tbaa !19
  %88 = getelementptr inbounds i8, ptr %87, i64 -16
  store double %.0, ptr %88, align 8, !tbaa !14
  call void @llvm.lifetime.end.p0(i64 8, ptr nonnull %2) #11
  br label %.critedge66

89:                                               ; preds = %64, %82, %72
  call void @llvm.lifetime.end.p0(i64 8, ptr nonnull %2) #11
  br label %90

90:                                               ; preds = %89, %43, %lj_strscan_numberobj.exit.thread
  %91 = getelementptr inbounds nuw i8, ptr %0, i64 32
  %92 = load ptr, ptr %91, align 8, !tbaa !19
  %93 = getelementptr inbounds i8, ptr %92, i64 -16
  store i64 -1, ptr %93, align 8, !tbaa !14
  br label %.critedge66

.critedge66:                                      ; preds = %lj_strscan_numberobj.exit.thread70, %.critedge, %.critedge68, %90
  ret i32 2
}